(dp1
S'output'
p2
S"<type 'exceptions.AttributeError'> 'Set' object has no attribute 'ingredients'"
p3
sS'layer'
p4
S'/Users/Harrison/Documents/Uni/IAPT_Practicals/web2py/applications/recipe/views/default/ingredients.html'
p5
sS'code'
p6
S'response.write("<!DOCTYPE html>\\n<html>\\n    <head>\\n\\n    </head>\\n    <body>\\n        <header>\\n            <h1>Harrison\'s Amazing Recipe Database</h1>\\n        </header>\\n        <nav>\\n            <ul>\\n                <li>", escape=False)\nresponse.write(A(\'Home\', _href=URL(\'Recipe\', \'default\', \'index\')))\nresponse.write(\'</li>\\n                <li>\', escape=False)\nresponse.write(A(\'Add Ingredient\', _href=URL(\'Recipe\', \'default\', \'addIngredient\')))\nresponse.write(\'</li>\\n                <li>\', escape=False)\nresponse.write(A(\'Add Recipe\', _href=URL(\'Recipe\', \'default\', \'addRecipe\')))\nresponse.write(\'</li>\\n            </ul>\\n        </nav>\\n        <main>\\n            \', escape=False)\nresponse.write(\'\\n<div>\\n    <dl>\\n        \', escape=False)\nfor ingredient in ingredients:\n    response.write(\'\\n        <dt>\', escape=False)\n    response.write(A(ingredient.name, callback=URL(\'recipe\', \'default\', \'ingredients\', args=[ingredient.name])))\n    response.write(\'</dt>\\n        \', escape=False)\n    if ing is not None & ing.ingredients.name == ingredient.name:\n        response.write(\'\\n            <dd>{=BEAUTIFY(ing)}}</dd>\\n        \', escape=False)\n        pass\n    response.write(\'\\n        \', escape=False)\n    pass\nresponse.write(\'\\n    </dl>\\n    \', escape=False)\nif ing is not None:\n    response.write(\'\\n    \', escape=False)\n    response.write(BEAUTIFY(ing))\n    response.write(\'\\n    \', escape=False)\n    pass\nresponse.write(\'\\n</div>\', escape=False)\nresponse.write(\'\\n            \', escape=False)\npass\nresponse.write(\'\\n        </main>\\n        <footer>\\n            Copyright Harrison Spain\\n        </footer>\\n    </body>\\n\\n\\n</html>\\n\\n\', escape=False)'
p7
sS'snapshot'
p8
(dp9
S'exception'
p10
(dp11
S'__hash__'
p12
S"<method-wrapper '__hash__' of exceptions.AttributeError object>"
p13
sS'__setattr__'
p14
S"<method-wrapper '__setattr__' of exceptions.AttributeError object>"
p15
sS'__reduce_ex__'
p16
S'<built-in method __reduce_ex__ of exceptions.AttributeError object>'
p17
sS'__getslice__'
p18
S"<method-wrapper '__getslice__' of exceptions.AttributeError object>"
p19
sS'__getitem__'
p20
S"<method-wrapper '__getitem__' of exceptions.AttributeError object>"
p21
sS'__setstate__'
p22
S'<built-in method __setstate__ of exceptions.AttributeError object>'
p23
sS'args'
p24
S'("\'Set\' object has no attribute \'ingredients\'",)'
p25
sS'__reduce__'
p26
S'<built-in method __reduce__ of exceptions.AttributeError object>'
p27
sS'__str__'
p28
S"<method-wrapper '__str__' of exceptions.AttributeError object>"
p29
sS'__format__'
p30
S'<built-in method __format__ of exceptions.AttributeError object>'
p31
sS'__getattribute__'
p32
S"<method-wrapper '__getattribute__' of exceptions.AttributeError object>"
p33
sS'__class__'
p34
S"<type 'exceptions.AttributeError'>"
p35
sS'__unicode__'
p36
S'<built-in method __unicode__ of exceptions.AttributeError object>'
p37
sS'__delattr__'
p38
S"<method-wrapper '__delattr__' of exceptions.AttributeError object>"
p39
sS'__subclasshook__'
p40
S'<built-in method __subclasshook__ of type object>'
p41
sS'__repr__'
p42
S"<method-wrapper '__repr__' of exceptions.AttributeError object>"
p43
sS'__dict__'
p44
S'{}'
p45
sS'__sizeof__'
p46
S'<built-in method __sizeof__ of exceptions.AttributeError object>'
p47
sS'__doc__'
p48
S"'Attribute not found.'"
p49
sS'__init__'
p50
S"<method-wrapper '__init__' of exceptions.AttributeError object>"
p51
sS'__new__'
p52
S'<built-in method __new__ of type object>'
p53
ssS'evalue'
p54
S"'Set' object has no attribute 'ingredients'"
p55
sS'request'
p56
cgluon.html
XML_unpickle
p57
(S's\x17b\x00\x00<div><table><tr><td style="font-weight:bold;vertical-align:top;">ajax</td><td style="vertical-align:top;">:</td><td><div>False</div></td></tr><tr><td style="font-weight:bold;vertical-align:top;">application</td><td style="vertical-align:top;">:</td><td><div>recipe</div></td></tr><tr><td style="font-weight:bold;vertical-align:top;">args</td><td style="vertical-align:top;">:</td><td><div><table><tr><td><div>Tomato</div></td></tr></table></div></td></tr><tr><td style="font-weight:bold;vertical-align:top;">cid</td><td style="vertical-align:top;">:</td><td><div>None</div></td></tr><tr><td style="font-weight:bold;vertical-align:top;">client</td><td style="vertical-align:top;">:</td><td><div>127.0.0.1</div></td></tr><tr><td style="font-weight:bold;vertical-align:top;">controller</td><td style="vertical-align:top;">:</td><td><div>default</div></td></tr><tr><td style="font-weight:bold;vertical-align:top;">cookies</td><td style="vertical-align:top;">:</td><td><div><table><tr><td style="font-weight:bold;vertical-align:top;">session_id_admin</td><td style="vertical-align:top;">:</td><td><div>127.0.0.1-834fb749-9fb9-4248-8a20-f4f619316c2c<table><tr><td style="font-weight:bold;vertical-align:top;">comment</td><td style="vertical-align:top;">:</td><td><div></div></td></tr><tr><td style="font-weight:bold;vertical-align:top;">domain</td><td style="vertical-align:top;">:</td><td><div></div></td></tr><tr><td style="font-weight:bold;vertical-align:top;">expires</td><td style="vertical-align:top;">:</td><td><div></div></td></tr><tr><td style="font-weight:bold;vertical-align:top;">httponly</td><td style="vertical-align:top;">:</td><td><div></div></td></tr><tr><td style="font-weight:bold;vertical-align:top;">max-age</td><td style="vertical-align:top;">:</td><td><div></div></td></tr><tr><td style="font-weight:bold;vertical-align:top;">path</td><td style="vertical-align:top;">:</td><td><div></div></td></tr><tr><td style="font-weight:bold;vertical-align:top;">secure</td><td style="vertical-align:top;">:</td><td><div></div></td></tr><tr><td style="font-weight:bold;vertical-align:top;">version</td><td style="vertical-align:top;">:</td><td><div></div></td></tr></table></div></td></tr><tr><td style="font-weight:bold;vertical-align:top;">session_id_congo</td><td style="vertical-align:top;">:</td><td><div>127.0.0.1-34d5248c-44de-41e5-bec7-9c68c1109f8d<table><tr><td style="font-weight:bold;vertical-align:top;">comment</td><td style="vertical-align:top;">:</td><td><div></div></td></tr><tr><td style="font-weight:bold;vertical-align:top;">domain</td><td style="vertical-align:top;">:</td><td><div></div></td></tr><tr><td style="font-weight:bold;vertical-align:top;">expires</td><td style="vertical-align:top;">:</td><td><div></div></td></tr><tr><td style="font-weight:bold;vertical-align:top;">httponly</td><td style="vertical-align:top;">:</td><td><div></div></td></tr><tr><td style="font-weight:bold;vertical-align:top;">max-age</td><td style="vertical-align:top;">:</td><td><div></div></td></tr><tr><td style="font-weight:bold;vertical-align:top;">path</td><td style="vertical-align:top;">:</td><td><div></div></td></tr><tr><td style="font-weight:bold;vertical-align:top;">secure</td><td style="vertical-align:top;">:</td><td><div></div></td></tr><tr><td style="font-weight:bold;vertical-align:top;">version</td><td style="vertical-align:top;">:</td><td><div></div></td></tr></table></div></td></tr><tr><td style="font-weight:bold;vertical-align:top;">session_id_recipe</td><td style="vertical-align:top;">:</td><td><div>127.0.0.1-86356626-91f2-41f1-948e-7bbcdcec7003<table><tr><td style="font-weight:bold;vertical-align:top;">comment</td><td style="vertical-align:top;">:</td><td><div></div></td></tr><tr><td style="font-weight:bold;vertical-align:top;">domain</td><td style="vertical-align:top;">:</td><td><div></div></td></tr><tr><td style="font-weight:bold;vertical-align:top;">expires</td><td style="vertical-align:top;">:</td><td><div></div></td></tr><tr><td style="font-weight:bold;vertical-align:top;">httponly</td><td style="vertical-align:top;">:</td><td><div></div></td></tr><tr><td style="font-weight:bold;vertical-align:top;">max-age</td><td style="vertical-align:top;">:</td><td><div></div></td></tr><tr><td style="font-weight:bold;vertical-align:top;">path</td><td style="vertical-align:top;">:</td><td><div></div></td></tr><tr><td style="font-weight:bold;vertical-align:top;">secure</td><td style="vertical-align:top;">:</td><td><div></div></td></tr><tr><td style="font-weight:bold;vertical-align:top;">version</td><td style="vertical-align:top;">:</td><td><div></div></td></tr></table></div></td></tr><tr><td style="font-weight:bold;vertical-align:top;">session_id_welcome</td><td style="vertical-align:top;">:</td><td><div>127.0.0.1-f1960e4e-2794-40c4-9bb4-9202faef5eae<table><tr><td style="font-weight:bold;vertical-align:top;">comment</td><td style="vertical-align:top;">:</td><td><div></div></td></tr><tr><td style="font-weight:bold;vertical-align:top;">domain</td><td style="vertical-align:top;">:</td><td><div></div></td></tr><tr><td style="font-weight:bold;vertical-align:top;">expires</td><td style="vertical-align:top;">:</td><td><div></div></td></tr><tr><td style="font-weight:bold;vertical-align:top;">httponly</td><td style="vertical-align:top;">:</td><td><div></div></td></tr><tr><td style="font-weight:bold;vertical-align:top;">max-age</td><td style="vertical-align:top;">:</td><td><div></div></td></tr><tr><td style="font-weight:bold;vertical-align:top;">path</td><td style="vertical-align:top;">:</td><td><div></div></td></tr><tr><td style="font-weight:bold;vertical-align:top;">secure</td><td style="vertical-align:top;">:</td><td><div></div></td></tr><tr><td style="font-weight:bold;vertical-align:top;">version</td><td style="vertical-align:top;">:</td><td><div></div></td></tr></table></div></td></tr></table></div></td></tr><tr><td style="font-weight:bold;vertical-align:top;">env</td><td style="vertical-align:top;">:</td><td><div><table><tr><td style="font-weight:bold;vertical-align:top;">HTTP_ACCEPT</td><td style="vertical-align:top;">:</td><td><div>text/html,application/xhtml+xml,application/xml;q=0.9,*/*;q=0.8</div></td></tr><tr><td style="font-weight:bold;vertical-align:top;">HTTP_ACCEPT_ENCODING</td><td style="vertical-align:top;">:</td><td><div>gzip, deflate</div></td></tr><tr><td style="font-weight:bold;vertical-align:top;">HTTP_ACCEPT_LANGUAGE</td><td style="vertical-align:top;">:</td><td><div>en-gb</div></td></tr><tr><td style="font-weight:bold;vertical-align:top;">HTTP_CONNECTION</td><td style="vertical-align:top;">:</td><td><div>keep-alive</div></td></tr><tr><td style="font-weight:bold;vertical-align:top;">HTTP_COOKIE</td><td style="vertical-align:top;">:</td><td><div>session_id_admin=127.0.0.1-834fb749-9fb9-4248-8a20-f4f619316c2c; session_id_congo=127.0.0.1-34d5248c-44de-41e5-bec7-9c68c1109f8d; session_id_recipe=127.0.0.1-86356626-91f2-41f1-948e-7bbcdcec7003; session_id_welcome=127.0.0.1-f1960e4e-2794-40c4-9bb4-9202faef5eae</div></td></tr><tr><td style="font-weight:bold;vertical-align:top;">HTTP_HOST</td><td style="vertical-align:top;">:</td><td><div>127.0.0.1:8000</div></td></tr><tr><td style="font-weight:bold;vertical-align:top;">HTTP_USER_AGENT</td><td style="vertical-align:top;">:</td><td><div>Mozilla/5.0 (Macintosh; Intel Mac OS X 10_10) AppleWebKit/600.1.25 (KHTML, like Gecko) Version/8.0 Safari/600.1.25</div></td></tr><tr><td style="font-weight:bold;vertical-align:top;">PATH_INFO</td><td style="vertical-align:top;">:</td><td><div>/recipe/default/ingredients/Tomato</div></td></tr><tr><td style="font-weight:bold;vertical-align:top;">QUERY_STRING</td><td style="vertical-align:top;">:</td><td><div></div></td></tr><tr><td style="font-weight:bold;vertical-align:top;">REMOTE_ADDR</td><td style="vertical-align:top;">:</td><td><div>127.0.0.1</div></td></tr><tr><td style="font-weight:bold;vertical-align:top;">REMOTE_PORT</td><td style="vertical-align:top;">:</td><td><div>62214</div></td></tr><tr><td style="font-weight:bold;vertical-align:top;">REQUEST_METHOD</td><td style="vertical-align:top;">:</td><td><div>GET</div></td></tr><tr><td style="font-weight:bold;vertical-align:top;">SCRIPT_NAME</td><td style="vertical-align:top;">:</td><td><div></div></td></tr><tr><td style="font-weight:bold;vertical-align:top;">SERVER_NAME</td><td style="vertical-align:top;">:</td><td><div>nas10-240-109-135.york.ac.uk</div></td></tr><tr><td style="font-weight:bold;vertical-align:top;">SERVER_PORT</td><td style="vertical-align:top;">:</td><td><div>8000</div></td></tr><tr><td style="font-weight:bold;vertical-align:top;">SERVER_PROTOCOL</td><td style="vertical-align:top;">:</td><td><div>HTTP/1.1</div></td></tr><tr><td style="font-weight:bold;vertical-align:top;">SERVER_SOFTWARE</td><td style="vertical-align:top;">:</td><td><div>Rocket 1.2.6</div></td></tr><tr><td style="font-weight:bold;vertical-align:top;">app_folders</td><td style="vertical-align:top;">:</td><td><div>set([&#x27;/Users/Harrison/Documents/Uni/IAPT_Practicals/web2py/applications/congo/&#x27;, &#x27;/Users/Harrison/Documents/Uni/IAPT_Practicals/web2py/applications/recipe/&#x27;, &#x27;/Users/Harrison/Documents/Uni/IAPT_Practicals/web2py/applications/Recipe/&#x27;, &#x27;/Users/Harrison/Documents/Uni/IAPT_Practicals/web2py/applications/welcome/&#x27;, &#x27;/Users/Harrison/Documents/Uni/IAPT_Practicals/web2py/applications/admin/&#x27;])</div></td></tr><tr><td style="font-weight:bold;vertical-align:top;">applications_parent</td><td style="vertical-align:top;">:</td><td><div>/Users/Harrison/Documents/Uni/IAPT_Practicals/web2py</div></td></tr><tr><td style="font-weight:bold;vertical-align:top;">cmd_args</td><td style="vertical-align:top;">:</td><td><div><table></table></div></td></tr><tr><td style="font-weight:bold;vertical-align:top;">cmd_options</td><td style="vertical-align:top;">:</td><td><div>&lt;Values at 0x110232680: {&#x27;verbose&#x27;: False, &#x27;ip&#x27;: &#x27;127.0.0.1&#x27;, &#x27;debuglevel&#x27;: 30, &#x27;with_scheduler&#x27;: False, &#x27;ips&#x27;: [], &#x27;shutdown_timeout&#x27;: 5, &#x27;taskbar&#x27;: False, &#x27;with_coverage&#x27;: False, &#x27;scheduler_groups&#x27;: None, &#x27;port&#x27;: 8000, &#x27;maxthreads&#x27;: None, &#x27;softcron&#x27;: False, &#x27;server_name&#x27;: &#x27;nas10-240-109-135.york.ac.uk&#x27;, &#x27;bpython&#x27;: False, &#x27;nogui&#x27;: False, &#x27;pid_filename&#x27;: &#x27;httpserver.pid&#x27;, &#x27;extcron&#x27;: False, &#x27;runcron&#x27;: False, &#x27;run_system_tests&#x27;: False, &#x27;test&#x27;: None, &#x27;folder&#x27;: &#x27;/Users/Harrison/Documents/Uni/IAPT_Practicals/web2py&#x27;, &#x27;config&#x27;: &#x27;&#x27;, &#x27;minthreads&#x27;: None, &#x27;shell&#x27;: None, &#x27;run&#x27;: &#x27;&#x27;, &#x27;log_filename&#x27;: &#x27;httpserver.log&#x27;, &#x27;profiler_dir&#x27;: None, &#x27;args&#x27;: [&#x27;&#x27;], &#x27;socket_timeout&#x27;: 5, &#x27;ssl_ca_certificate&#x27;: None, &#x27;scheduler&#x27;: None, &#x27;interfaces&#x27;: None, &#x27;ssl_private_key&#x27;: &#x27;&#x27;, &#x27;gae&#x27;: None, &#x27;password&#x27;: &#x27;&lt;ask&gt;&#x27;, &#x27;request_queue_size&#x27;: 5, &#x27;ssl_certificate&#x27;: &#x27;&#x27;, &#x27;cronjob&#x27;: False, &#x27;numthreads&#x27;: None, &#x27;quiet&#x27;: False, &#x27;import_models&#x27;: False, &#x27;timeout&#x27;: 10, &#x27;plain&#x27;: False, &#x27;nobanner&#x27;: False}&gt;</div></td></tr><tr><td style="font-weight:bold;vertical-align:top;">db_sessions</td><td style="vertical-align:top;">:</td><td><div>set([])</div></td></tr><tr><td style="font-weight:bold;vertical-align:top;">debugging</td><td style="vertical-align:top;">:</td><td><div>False</div></td></tr><tr><td style="font-weight:bold;vertical-align:top;">gluon_parent</td><td style="vertical-align:top;">:</td><td><div>/Users/Harrison/Documents/Uni/IAPT_Practicals/web2py</div></td></tr><tr><td style="font-weight:bold;vertical-align:top;">http_accept</td><td style="vertical-align:top;">:</td><td><div>text/html,application/xhtml+xml,application/xml;q=0.9,*/*;q=0.8</div></td></tr><tr><td style="font-weight:bold;vertical-align:top;">http_accept_encoding</td><td style="vertical-align:top;">:</td><td><div>gzip, deflate</div></td></tr><tr><td style="font-weight:bold;vertical-align:top;">http_accept_language</td><td style="vertical-align:top;">:</td><td><div>en-gb</div></td></tr><tr><td style="font-weight:bold;vertical-align:top;">http_connection</td><td style="vertical-align:top;">:</td><td><div>keep-alive</div></td></tr><tr><td style="font-weight:bold;vertical-align:top;">http_cookie</td><td style="vertical-align:top;">:</td><td><div>session_id_admin=127.0.0.1-834fb749-9fb9-4248-8a20-f4f619316c2c; session_id_congo=127.0.0.1-34d5248c-44de-41e5-bec7-9c68c1109f8d; session_id_recipe=127.0.0.1-86356626-91f2-41f1-948e-7bbcdcec7003; session_id_welcome=127.0.0.1-f1960e4e-2794-40c4-9bb4-9202faef5eae</div></td></tr><tr><td style="font-weight:bold;vertical-align:top;">http_host</td><td style="vertical-align:top;">:</td><td><div>127.0.0.1:8000</div></td></tr><tr><td style="font-weight:bold;vertical-align:top;">http_user_agent</td><td style="vertical-align:top;">:</td><td><div>Mozilla/5.0 (Macintosh; Intel Mac OS X 10_10) AppleWebKit/600.1.25 (KHTML, like Gecko) Version/8.0 Safari/600.1.25</div></td></tr><tr><td style="font-weight:bold;vertical-align:top;">is_jython</td><td style="vertical-align:top;">:</td><td><div>False</div></td></tr><tr><td style="font-weight:bold;vertical-align:top;">is_pypy</td><td style="vertical-align:top;">:</td><td><div>False</div></td></tr><tr><td style="font-weight:bold;vertical-align:top;">is_source</td><td style="vertical-align:top;">:</td><td><div>True</div></td></tr><tr><td style="font-weight:bold;vertical-align:top;">local_hosts</td><td style="vertical-align:top;">:</td><td><div><table><tr><td><div>nas10-240-109-135.york.ac.uk</div></td></tr><tr><td><div>::1</div></td></tr><tr><td><div>::ffff:127.0.0.1</div></td></tr><tr><td><div>127.0.0.1</div></td></tr></table></div></td></tr><tr><td style="font-weight:bold;vertical-align:top;">path_info</td><td style="vertical-align:top;">:</td><td><div>/recipe/default/ingredients/Tomato</div></td></tr><tr><td style="font-weight:bold;vertical-align:top;">query_string</td><td style="vertical-align:top;">:</td><td><div></div></td></tr><tr><td style="font-weight:bold;vertical-align:top;">remote_addr</td><td style="vertical-align:top;">:</td><td><div>127.0.0.1</div></td></tr><tr><td style="font-weight:bold;vertical-align:top;">remote_port</td><td style="vertical-align:top;">:</td><td><div>62214</div></td></tr><tr><td style="font-weight:bold;vertical-align:top;">request_method</td><td style="vertical-align:top;">:</td><td><div>GET</div></td></tr><tr><td style="font-weight:bold;vertical-align:top;">request_uri</td><td style="vertical-align:top;">:</td><td><div>/recipe/default/ingredients/Tomato</div></td></tr><tr><td style="font-weight:bold;vertical-align:top;">script_name</td><td style="vertical-align:top;">:</td><td><div></div></td></tr><tr><td style="font-weight:bold;vertical-align:top;">server_name</td><td style="vertical-align:top;">:</td><td><div>nas10-240-109-135.york.ac.uk</div></td></tr><tr><td style="font-weight:bold;vertical-align:top;">server_port</td><td style="vertical-align:top;">:</td><td><div>8000</div></td></tr><tr><td style="font-weight:bold;vertical-align:top;">server_protocol</td><td style="vertical-align:top;">:</td><td><div>HTTP/1.1</div></td></tr><tr><td style="font-weight:bold;vertical-align:top;">server_software</td><td style="vertical-align:top;">:</td><td><div>Rocket 1.2.6</div></td></tr><tr><td style="font-weight:bold;vertical-align:top;">web2py_path</td><td style="vertical-align:top;">:</td><td><div>/Users/Harrison/Documents/Uni/IAPT_Practicals/web2py</div></td></tr><tr><td style="font-weight:bold;vertical-align:top;">web2py_version</td><td style="vertical-align:top;">:</td><td><div>2.9.11-stable+timestamp.2014.09.15.23.35.11</div></td></tr><tr><td style="font-weight:bold;vertical-align:top;">wsgi.errors</td><td style="vertical-align:top;">:</td><td><div>&lt;open file &#x27;&lt;stderr&gt;&#x27;, mode &#x27;w&#x27; at 0x10e3611e0&gt;</div></td></tr><tr><td style="font-weight:bold;vertical-align:top;">wsgi.file_wrapper</td><td style="vertical-align:top;">:</td><td><div>&lt;class wsgiref.util.FileWrapper at 0x10f1a7350&gt;</div></td></tr><tr><td style="font-weight:bold;vertical-align:top;">wsgi.input</td><td style="vertical-align:top;">:</td><td><div>&lt;socket._fileobject object at 0x11719c2d0&gt;</div></td></tr><tr><td style="font-weight:bold;vertical-align:top;">wsgi.multiprocess</td><td style="vertical-align:top;">:</td><td><div>False</div></td></tr><tr><td style="font-weight:bold;vertical-align:top;">wsgi.multithread</td><td style="vertical-align:top;">:</td><td><div>True</div></td></tr><tr><td style="font-weight:bold;vertical-align:top;">wsgi.run_once</td><td style="vertical-align:top;">:</td><td><div>False</div></td></tr><tr><td style="font-weight:bold;vertical-align:top;">wsgi.url_scheme</td><td style="vertical-align:top;">:</td><td><div>http</div></td></tr><tr><td style="font-weight:bold;vertical-align:top;">wsgi.version</td><td style="vertical-align:top;">:</td><td><div><table><tr><td><div>1</div></td></tr><tr><td><div>0</div></td></tr></table></div></td></tr><tr><td style="font-weight:bold;vertical-align:top;">wsgi_errors</td><td style="vertical-align:top;">:</td><td><div>&lt;open file &#x27;&lt;stderr&gt;&#x27;, mode &#x27;w&#x27; at 0x10e3611e0&gt;</div></td></tr><tr><td style="font-weight:bold;vertical-align:top;">wsgi_file_wrapper</td><td style="vertical-align:top;">:</td><td><div>&lt;class wsgiref.util.FileWrapper at 0x10f1a7350&gt;</div></td></tr><tr><td style="font-weight:bold;vertical-align:top;">wsgi_input</td><td style="vertical-align:top;">:</td><td><div>&lt;socket._fileobject object at 0x11719c2d0&gt;</div></td></tr><tr><td style="font-weight:bold;vertical-align:top;">wsgi_multiprocess</td><td style="vertical-align:top;">:</td><td><div>False</div></td></tr><tr><td style="font-weight:bold;vertical-align:top;">wsgi_multithread</td><td style="vertical-align:top;">:</td><td><div>True</div></td></tr><tr><td style="font-weight:bold;vertical-align:top;">wsgi_run_once</td><td style="vertical-align:top;">:</td><td><div>False</div></td></tr><tr><td style="font-weight:bold;vertical-align:top;">wsgi_url_scheme</td><td style="vertical-align:top;">:</td><td><div>http</div></td></tr><tr><td style="font-weight:bold;vertical-align:top;">wsgi_version</td><td style="vertical-align:top;">:</td><td><div><table><tr><td><div>1</div></td></tr><tr><td><div>0</div></td></tr></table></div></td></tr></table></div></td></tr><tr><td style="font-weight:bold;vertical-align:top;">extension</td><td style="vertical-align:top;">:</td><td><div>html</div></td></tr><tr><td style="font-weight:bold;vertical-align:top;">folder</td><td style="vertical-align:top;">:</td><td><div>/Users/Harrison/Documents/Uni/IAPT_Practicals/web2py/applications/recipe/</div></td></tr><tr><td style="font-weight:bold;vertical-align:top;">function</td><td style="vertical-align:top;">:</td><td><div>ingredients</div></td></tr><tr><td style="font-weight:bold;vertical-align:top;">global_settings</td><td style="vertical-align:top;">:</td><td><div><table><tr><td style="font-weight:bold;vertical-align:top;">app_folders</td><td style="vertical-align:top;">:</td><td><div>set([&#x27;/Users/Harrison/Documents/Uni/IAPT_Practicals/web2py/applications/congo/&#x27;, &#x27;/Users/Harrison/Documents/Uni/IAPT_Practicals/web2py/applications/recipe/&#x27;, &#x27;/Users/Harrison/Documents/Uni/IAPT_Practicals/web2py/applications/Recipe/&#x27;, &#x27;/Users/Harrison/Documents/Uni/IAPT_Practicals/web2py/applications/welcome/&#x27;, &#x27;/Users/Harrison/Documents/Uni/IAPT_Practicals/web2py/applications/admin/&#x27;])</div></td></tr><tr><td style="font-weight:bold;vertical-align:top;">applications_parent</td><td style="vertical-align:top;">:</td><td><div>/Users/Harrison/Documents/Uni/IAPT_Practicals/web2py</div></td></tr><tr><td style="font-weight:bold;vertical-align:top;">cmd_args</td><td style="vertical-align:top;">:</td><td><div><table></table></div></td></tr><tr><td style="font-weight:bold;vertical-align:top;">cmd_options</td><td style="vertical-align:top;">:</td><td><div>&lt;Values at 0x110232680: {&#x27;verbose&#x27;: False, &#x27;ip&#x27;: &#x27;127.0.0.1&#x27;, &#x27;debuglevel&#x27;: 30, &#x27;with_scheduler&#x27;: False, &#x27;ips&#x27;: [], &#x27;shutdown_timeout&#x27;: 5, &#x27;taskbar&#x27;: False, &#x27;with_coverage&#x27;: False, &#x27;scheduler_groups&#x27;: None, &#x27;port&#x27;: 8000, &#x27;maxthreads&#x27;: None, &#x27;softcron&#x27;: False, &#x27;server_name&#x27;: &#x27;nas10-240-109-135.york.ac.uk&#x27;, &#x27;bpython&#x27;: False, &#x27;nogui&#x27;: False, &#x27;pid_filename&#x27;: &#x27;httpserver.pid&#x27;, &#x27;extcron&#x27;: False, &#x27;runcron&#x27;: False, &#x27;run_system_tests&#x27;: False, &#x27;test&#x27;: None, &#x27;folder&#x27;: &#x27;/Users/Harrison/Documents/Uni/IAPT_Practicals/web2py&#x27;, &#x27;config&#x27;: &#x27;&#x27;, &#x27;minthreads&#x27;: None, &#x27;shell&#x27;: None, &#x27;run&#x27;: &#x27;&#x27;, &#x27;log_filename&#x27;: &#x27;httpserver.log&#x27;, &#x27;profiler_dir&#x27;: None, &#x27;args&#x27;: [&#x27;&#x27;], &#x27;socket_timeout&#x27;: 5, &#x27;ssl_ca_certificate&#x27;: None, &#x27;scheduler&#x27;: None, &#x27;interfaces&#x27;: None, &#x27;ssl_private_key&#x27;: &#x27;&#x27;, &#x27;gae&#x27;: None, &#x27;password&#x27;: &#x27;&lt;ask&gt;&#x27;, &#x27;request_queue_size&#x27;: 5, &#x27;ssl_certificate&#x27;: &#x27;&#x27;, &#x27;cronjob&#x27;: False, &#x27;numthreads&#x27;: None, &#x27;quiet&#x27;: False, &#x27;import_models&#x27;: False, &#x27;timeout&#x27;: 10, &#x27;plain&#x27;: False, &#x27;nobanner&#x27;: False}&gt;</div></td></tr><tr><td style="font-weight:bold;vertical-align:top;">db_sessions</td><td style="vertical-align:top;">:</td><td><div>set([])</div></td></tr><tr><td style="font-weight:bold;vertical-align:top;">debugging</td><td style="vertical-align:top;">:</td><td><div>False</div></td></tr><tr><td style="font-weight:bold;vertical-align:top;">gluon_parent</td><td style="vertical-align:top;">:</td><td><div>/Users/Harrison/Documents/Uni/IAPT_Practicals/web2py</div></td></tr><tr><td style="font-weight:bold;vertical-align:top;">is_jython</td><td style="vertical-align:top;">:</td><td><div>False</div></td></tr><tr><td style="font-weight:bold;vertical-align:top;">is_pypy</td><td style="vertical-align:top;">:</td><td><div>False</div></td></tr><tr><td style="font-weight:bold;vertical-align:top;">is_source</td><td style="vertical-align:top;">:</td><td><div>True</div></td></tr><tr><td style="font-weight:bold;vertical-align:top;">local_hosts</td><td style="vertical-align:top;">:</td><td><div><table><tr><td><div>nas10-240-109-135.york.ac.uk</div></td></tr><tr><td><div>::1</div></td></tr><tr><td><div>::ffff:127.0.0.1</div></td></tr><tr><td><div>127.0.0.1</div></td></tr></table></div></td></tr><tr><td style="font-weight:bold;vertical-align:top;">web2py_version</td><td style="vertical-align:top;">:</td><td><div>2.9.11-stable+timestamp.2014.09.15.23.35.11</div></td></tr></table></div></td></tr><tr><td style="font-weight:bold;vertical-align:top;">is_https</td><td style="vertical-align:top;">:</td><td><div>False</div></td></tr><tr><td style="font-weight:bold;vertical-align:top;">is_local</td><td style="vertical-align:top;">:</td><td><div>True</div></td></tr><tr><td style="font-weight:bold;vertical-align:top;">is_restful</td><td style="vertical-align:top;">:</td><td><div>False</div></td></tr><tr><td style="font-weight:bold;vertical-align:top;">is_sheduler</td><td style="vertical-align:top;">:</td><td><div>None</div></td></tr><tr><td style="font-weight:bold;vertical-align:top;">is_shell</td><td style="vertical-align:top;">:</td><td><div>None</div></td></tr><tr><td style="font-weight:bold;vertical-align:top;">now</td><td style="vertical-align:top;">:</td><td><div>datetime.datetime(2014, 11, 2, 15, 48, 33, 524441)</div></td></tr><tr><td style="font-weight:bold;vertical-align:top;">raw_args</td><td style="vertical-align:top;">:</td><td><div>Tomato</div></td></tr><tr><td style="font-weight:bold;vertical-align:top;">raw_extension</td><td style="vertical-align:top;">:</td><td><div>None</div></td></tr><tr><td style="font-weight:bold;vertical-align:top;">url</td><td style="vertical-align:top;">:</td><td><div>/recipe/default/ingredients/Tomato</div></td></tr><tr><td style="font-weight:bold;vertical-align:top;">utcnow</td><td style="vertical-align:top;">:</td><td><div>datetime.datetime(2014, 11, 2, 15, 48, 33, 524450)</div></td></tr><tr><td style="font-weight:bold;vertical-align:top;">uuid</td><td style="vertical-align:top;">:</td><td><div>recipe/127.0.0.1.2014-11-02.15-48-33.0d1d8978-48ff-4e0b-b55e-f802dcf9ed80</div></td></tr><tr><td style="font-weight:bold;vertical-align:top;">wsgi</td><td style="vertical-align:top;">:</td><td><div>&lt;gluon.main.LazyWSGI object at 0x114590ad0&gt;</div></td></tr></table></div>'
tRp58
sS'frames'
p59
(lp60
(dp61
S'file'
p62
S'/Users/Harrison/Documents/Uni/IAPT_Practicals/web2py/gluon/restricted.py'
p63
sS'dump'
p64
(dp65
S'environment'
p66
S"{'A': <class 'gluon.html.A'>, 'ANY_OF': <class 'gluon.validators.ANY_OF'>, 'ASSIGNJS': <function ASSIGNJS>, 'Auth': <class 'gluon.tools.Auth'>, 'B': <class 'gluon.html.B'>, 'BEAUTIFY': <class 'gluon.html.BEAUTIFY'>, 'BODY': <class 'gluon.html.BODY'>, 'BR': <class 'gluon.html.BR'>, 'BUTTON': <class 'gluon.html.BUTTON'>, 'CAT': <class 'gluon.html.CAT'>, ...}"
p67
sS'ccode'
p68
S'<code object <module> at 0x11455aeb8, file "/Use...s/recipe/views/default/ingredients.html", line 1>'
p69
ssS'lnum'
p70
I224
sS'lines'
p71
(dp72
I224
S'        exec ccode in environment'
p73
sI225
S'    except HTTP:'
p74
sI226
S'        raise'
p75
sI227
S'    except RestrictedError:'
p76
sI228
S'        # do not encapsulate (obfuscate) the original RestrictedError'
p77
sI219
S'    try:'
p78
sI220
S'        if isinstance(code, types.CodeType):'
p79
sI221
S'            ccode = code'
p80
sI222
S'        else:'
p81
sI223
S'            ccode = compile2(code, layer)'
p82
ssS'call'
p83
S'(code=\'response.write("<!DOCTYPE html>\\\\n<html>\\\\n    <he...er>\\\\n    </body>\\\\n\\\\n\\\\n</html>\\\\n\\\\n\\\', escape=False)\', environment={\'A\': <class \'gluon.html.A\'>, \'ANY_OF\': <class \'gluon.validators.ANY_OF\'>, \'ASSIGNJS\': <function ASSIGNJS>, \'Auth\': <class \'gluon.tools.Auth\'>, \'B\': <class \'gluon.html.B\'>, \'BEAUTIFY\': <class \'gluon.html.BEAUTIFY\'>, \'BODY\': <class \'gluon.html.BODY\'>, \'BR\': <class \'gluon.html.BR\'>, \'BUTTON\': <class \'gluon.html.BUTTON\'>, \'CAT\': <class \'gluon.html.CAT\'>, ...}, layer=\'/Users/Harrison/Documents/Uni/IAPT_Practicals/we...pplications/recipe/views/default/ingredients.html\')'
p84
sS'func'
p85
S'restricted'
p86
sa(dp87
g62
S'/Users/Harrison/Documents/Uni/IAPT_Practicals/web2py/applications/recipe/views/default/ingredients.html'
p88
sg64
(dp89
sg70
I13
sg71
(dp90
I4
S"response.write(A('Add Ingredient', _href=URL('Recipe', 'default', 'addIngredient')))"
p91
sI5
S"response.write('</li>\\n                <li>', escape=False)"
p92
sI6
S"response.write(A('Add Recipe', _href=URL('Recipe', 'default', 'addRecipe')))"
p93
sI7
S"response.write('</li>\\n            </ul>\\n        </nav>\\n        <main>\\n            ', escape=False)"
p94
sI8
S"response.write('\\n<div>\\n    <dl>\\n        ', escape=False)"
p95
sI9
S'for ingredient in ingredients:'
p96
sI10
S"    response.write('\\n        <dt>', escape=False)"
p97
sI11
S"    response.write(A(ingredient.name, callback=URL('recipe', 'default', 'ingredients', args=[ingredient.name])))"
p98
sI12
S"    response.write('</dt>\\n        ', escape=False)"
p99
sI13
S'    if ing is not None & ing.ingredients.name == ingredient.name:'
p100
sI14
S"        response.write('\\n            <dd>{=BEAUTIFY(ing)}}</dd>\\n        ', escape=False)"
p101
sI15
S'        pass'
p102
sI16
S"    response.write('\\n        ', escape=False)"
p103
sI17
S'    pass'
p104
sI18
S"response.write('\\n    </dl>\\n    ', escape=False)"
p105
sI19
S'if ing is not None:'
p106
sI20
S"    response.write('\\n    ', escape=False)"
p107
sI21
S'    response.write(BEAUTIFY(ing))'
p108
sI22
S"    response.write('\\n    ', escape=False)"
p109
sI23
S'    pass'
p110
ssg83
S'()'
p111
sg85
S'<module>'
p112
sasS'pyver'
p113
S'Python 2.6.9: /System/Library/Frameworks/Python.framework/Versions/2.6/bin/python2.6 (prefix: /System/Library/Frameworks/Python.framework/Versions/2.6)'
p114
sS'session'
p115
g57
(S's<\x01\x00\x00<div><table><tr><td style="font-weight:bold;vertical-align:top;">last_orderby</td><td style="vertical-align:top;">:</td><td><div>None</div></td></tr><tr><td style="font-weight:bold;vertical-align:top;">last_query</td><td style="vertical-align:top;">:</td><td><div>db.ingredients.id&gt;0</div></td></tr></table></div>'
tRp116
sS'etype'
p117
S"<type 'exceptions.AttributeError'>"
p118
sS'date'
p119
S'Sun Nov  2 15:48:33 2014'
p120
sS'response'
p121
g57
(S's\xcb2\x00\x00<div><table><tr><td style="font-weight:bold;vertical-align:top;">body</td><td style="vertical-align:top;">:</td><td><div>&lt;cStringIO.StringO object at 0x1170666f8&gt;</div></td></tr><tr><td style="font-weight:bold;vertical-align:top;">cookies</td><td style="vertical-align:top;">:</td><td><div><table><tr><td style="font-weight:bold;vertical-align:top;">session_id_recipe</td><td style="vertical-align:top;">:</td><td><div>127.0.0.1-86356626-91f2-41f1-948e-7bbcdcec7003<table><tr><td style="font-weight:bold;vertical-align:top;">comment</td><td style="vertical-align:top;">:</td><td><div></div></td></tr><tr><td style="font-weight:bold;vertical-align:top;">domain</td><td style="vertical-align:top;">:</td><td><div></div></td></tr><tr><td style="font-weight:bold;vertical-align:top;">expires</td><td style="vertical-align:top;">:</td><td><div></div></td></tr><tr><td style="font-weight:bold;vertical-align:top;">httponly</td><td style="vertical-align:top;">:</td><td><div></div></td></tr><tr><td style="font-weight:bold;vertical-align:top;">max-age</td><td style="vertical-align:top;">:</td><td><div></div></td></tr><tr><td style="font-weight:bold;vertical-align:top;">path</td><td style="vertical-align:top;">:</td><td><div>/</div></td></tr><tr><td style="font-weight:bold;vertical-align:top;">secure</td><td style="vertical-align:top;">:</td><td><div></div></td></tr><tr><td style="font-weight:bold;vertical-align:top;">version</td><td style="vertical-align:top;">:</td><td><div></div></td></tr></table></div></td></tr></table></div></td></tr><tr><td style="font-weight:bold;vertical-align:top;">delimiters</td><td style="vertical-align:top;">:</td><td><div><table><tr><td><div>{{</div></td></tr><tr><td><div>}}</div></td></tr></table></div></td></tr><tr><td style="font-weight:bold;vertical-align:top;">files</td><td style="vertical-align:top;">:</td><td><div><table></table></div></td></tr><tr><td style="font-weight:bold;vertical-align:top;">flash</td><td style="vertical-align:top;">:</td><td><div></div></td></tr><tr><td style="font-weight:bold;vertical-align:top;">form_label_separator</td><td style="vertical-align:top;">:</td><td><div>: </div></td></tr><tr><td style="font-weight:bold;vertical-align:top;">formstyle</td><td style="vertical-align:top;">:</td><td><div>table3cols</div></td></tr><tr><td style="font-weight:bold;vertical-align:top;">generic_patterns</td><td style="vertical-align:top;">:</td><td><div><table><tr><td><div>*</div></td></tr></table></div></td></tr><tr><td style="font-weight:bold;vertical-align:top;">google_analytics_id</td><td style="vertical-align:top;">:</td><td><div>None</div></td></tr><tr><td style="font-weight:bold;vertical-align:top;">headers</td><td style="vertical-align:top;">:</td><td><div><table><tr><td style="font-weight:bold;vertical-align:top;">X-Powered-By</td><td style="vertical-align:top;">:</td><td><div>web2py</div></td></tr></table></div></td></tr><tr><td style="font-weight:bold;vertical-align:top;">logo</td><td style="vertical-align:top;">:</td><td><div><a class="brand" href="http://www.web2py.com/"><b>web<span>2</span>py</b>&trade;&nbsp;</a></div></td></tr><tr><td style="font-weight:bold;vertical-align:top;">menu</td><td style="vertical-align:top;">:</td><td><div><table><tr><td><div><table><tr><td><div>Home</div></td></tr><tr><td><div>False</div></td></tr><tr><td><div>/recipe/default/index</div></td></tr><tr><td><div><table></table></div></td></tr></table></div></td></tr><tr><td><div><table><tr><td><div><span class="highlighted">web2py</span></div></td></tr><tr><td><div>False</div></td></tr><tr><td><div>http://web2py.com</div></td></tr><tr><td><div><table><tr><td><div><table><tr><td><div>My Sites</div></td></tr><tr><td><div>False</div></td></tr><tr><td><div>/admin/default/site</div></td></tr></table></div></td></tr><tr><td><div><table><tr><td><div>This App</div></td></tr><tr><td><div>False</div></td></tr><tr><td><div>/admin/default/design/recipe</div></td></tr><tr><td><div>[(&lt;lazyT &#x27;Controller&#x27;&gt;, False, &#x27;/admin/default/edit/recipe/controllers/default.py&#x27;), (&lt;lazyT &#x27;View&#x27;&gt;, False, &#x27;/admin/default/edit/recipe/views/default/ingredients.html&#x27;), (&lt;lazyT &#x27;Layout&#x27;&gt;, False, &#x27;/admin/default/edit/recipe/views/layout.html&#x27;), (&lt;lazyT &#x27;Stylesheet&#x27;&gt;, False, &#x27;/admin/default/edit/recipe/static/css/web2py.css&#x27;), (&lt;lazyT &#x27;DB Model&#x27;&gt;, False, &#x27;/admin/default/edit/recipe/models/db.py&#x27;), (&lt;lazyT &#x27;Menu Model&#x27;&gt;, False, &#x27;/admin/default/edit/recipe/models/menu.py&#x27;), (&lt;lazyT &#x27;Database&#x27;&gt;, False, &#x27;/recipe/appadmin/index&#x27;), (&lt;lazyT &#x27;Errors&#x27;&gt;, False, &#x27;/admin/default/errors/recipe&#x27;), (&lt;lazyT &#x27;About&#x27;&gt;, False, &#x27;/admin/default/about/recipe&#x27;)]</div></td></tr></table></div></td></tr><tr><td><div><table><tr><td><div>web2py.com</div></td></tr><tr><td><div>False</div></td></tr><tr><td><div>http://www.web2py.com</div></td></tr><tr><td><div>[(&lt;lazyT &#x27;Download&#x27;&gt;, False, &#x27;http://www.web2py.com/examples/default/download&#x27;), (&lt;lazyT &#x27;Support&#x27;&gt;, False, &#x27;http://www.web2py.com/examples/default/support&#x27;), (&lt;lazyT &#x27;Demo&#x27;&gt;, False, &#x27;http://web2py.com/demo_admin&#x27;), (&lt;lazyT &#x27;Quick Examples&#x27;&gt;, False, &#x27;http://web2py.com/examples/default/examples&#x27;), (&lt;lazyT &#x27;FAQ&#x27;&gt;, False, &#x27;http://web2py.com/AlterEgo&#x27;), (&lt;lazyT &#x27;Videos&#x27;&gt;, False, &#x27;http://www.web2py.com/examples/default/videos/&#x27;), (&lt;lazyT &#x27;Free Applications&#x27;&gt;, False, &#x27;http://web2py.com/appliances&#x27;), (&lt;lazyT &#x27;Plugins&#x27;&gt;, False, &#x27;http://web2py.com/plugins&#x27;), (&lt;lazyT &#x27;Layouts&#x27;&gt;, False, &#x27;http://web2py.com/layouts&#x27;), (&lt;lazyT &#x27;Recipes&#x27;&gt;, False, &#x27;http://web2pyslices.com/&#x27;), (&lt;lazyT &#x27;Semantic&#x27;&gt;, False, &#x27;http://web2py.com/semantic&#x27;)]</div></td></tr></table></div></td></tr><tr><td><div><table><tr><td><div>Documentation</div></td></tr><tr><td><div>False</div></td></tr><tr><td><div>http://www.web2py.com/book</div></td></tr><tr><td><div>[(&lt;lazyT &#x27;Preface&#x27;&gt;, False, &#x27;http://www.web2py.com/book/default/chapter/00&#x27;), (&lt;lazyT &#x27;Introduction&#x27;&gt;, False, &#x27;http://www.web2py.com/book/default/chapter/01&#x27;), (&lt;lazyT &#x27;Python&#x27;&gt;, False, &#x27;http://www.web2py.com/book/default/chapter/02&#x27;), (&lt;lazyT &#x27;Overview&#x27;&gt;, False, &#x27;http://www.web2py.com/book/default/chapter/03&#x27;), (&lt;lazyT &#x27;The Core&#x27;&gt;, False, &#x27;http://www.web2py.com/book/default/chapter/04&#x27;), (&lt;lazyT &#x27;The Views&#x27;&gt;, False, &#x27;http://www.web2py.com/book/default/chapter/05&#x27;), (&lt;lazyT &#x27;Database&#x27;&gt;, False, &#x27;http://www.web2py.com/book/default/chapter/06&#x27;), (&lt;lazyT &#x27;Forms and Validators&#x27;&gt;, False, &#x27;http://www.web2py.com/book/default/chapter/07&#x27;), (&lt;lazyT &#x27;Email and SMS&#x27;&gt;, False, &#x27;http://www.web2py.com/book/default/chapter/08&#x27;), (&lt;lazyT &#x27;Access Control&#x27;&gt;, False, &#x27;http://www.web2py.com/book/default/chapter/09&#x27;), (&lt;lazyT &#x27;Services&#x27;&gt;, False, &#x27;http://www.web2py.com/book/default/chapter/10&#x27;), (&lt;lazyT &#x27;Ajax Recipes&#x27;&gt;, False, &#x27;http://www.web2py.com/book/default/chapter/11&#x27;), (&lt;lazyT &#x27;Components and Plugins&#x27;&gt;, False, &#x27;http://www.web2py.com/book/default/chapter/12&#x27;), (&lt;lazyT &#x27;Deployment Recipes&#x27;&gt;, False, &#x27;http://www.web2py.com/book/default/chapter/13&#x27;), (&lt;lazyT &#x27;Other Recipes&#x27;&gt;, False, &#x27;http://www.web2py.com/book/default/chapter/14&#x27;), (&lt;lazyT &#x27;Buy this book&#x27;&gt;, False, &#x27;http://stores.lulu.com/web2py&#x27;)]</div></td></tr></table></div></td></tr><tr><td><div><table><tr><td><div>Community</div></td></tr><tr><td><div>False</div></td></tr><tr><td><div>None</div></td></tr><tr><td><div>[(&lt;lazyT &#x27;Groups&#x27;&gt;, False, &#x27;http://www.web2py.com/examples/default/usergroups&#x27;), (&lt;lazyT &#x27;Twitter&#x27;&gt;, False, &#x27;http://twitter.com/web2py&#x27;), (&lt;lazyT &#x27;Live Chat&#x27;&gt;, False, &#x27;http://webchat.freenode.net/?channels=web2py&#x27;)]</div></td></tr></table></div></td></tr><tr><td><div><table><tr><td><div>Plugins</div></td></tr><tr><td><div>False</div></td></tr><tr><td><div>None</div></td></tr><tr><td><div>[(&#x27;plugin_wiki&#x27;, False, &#x27;http://web2py.com/examples/default/download&#x27;), (&lt;lazyT &#x27;Other Plugins&#x27;&gt;, False, &#x27;http://web2py.com/plugins&#x27;), (&lt;lazyT &#x27;Layout Plugins&#x27;&gt;, False, &#x27;http://web2py.com/layouts&#x27;)]</div></td></tr></table></div></td></tr></table></div></td></tr></table></div></td></tr></table></div></td></tr><tr><td style="font-weight:bold;vertical-align:top;">meta</td><td style="vertical-align:top;">:</td><td><div><table><tr><td style="font-weight:bold;vertical-align:top;">author</td><td style="vertical-align:top;">:</td><td><div>Your Name &lt;you@example.com&gt;</div></td></tr><tr><td style="font-weight:bold;vertical-align:top;">generator</td><td style="vertical-align:top;">:</td><td><div>Web2py Web Framework</div></td></tr><tr><td style="font-weight:bold;vertical-align:top;">keywords</td><td style="vertical-align:top;">:</td><td><div>web2py, python, framework</div></td></tr></table></div></td></tr><tr><td style="font-weight:bold;vertical-align:top;">models_to_run</td><td style="vertical-align:top;">:</td><td><div><table><tr><td><div>^\\w+\\.py$</div></td></tr><tr><td><div>^default/\\w+\\.py$</div></td></tr><tr><td><div>^default/ingredients/\\w+\\.py$</div></td></tr></table></div></td></tr><tr><td style="font-weight:bold;vertical-align:top;">postprocessing</td><td style="vertical-align:top;">:</td><td><div><table></table></div></td></tr><tr><td style="font-weight:bold;vertical-align:top;">session_client</td><td style="vertical-align:top;">:</td><td><div>127.0.0.1</div></td></tr><tr><td style="font-weight:bold;vertical-align:top;">session_cookie_compression_level</td><td style="vertical-align:top;">:</td><td><div>None</div></td></tr><tr><td style="font-weight:bold;vertical-align:top;">session_cookie_expires</td><td style="vertical-align:top;">:</td><td><div>None</div></td></tr><tr><td style="font-weight:bold;vertical-align:top;">session_cookie_key</td><td style="vertical-align:top;">:</td><td><div>None</div></td></tr><tr><td style="font-weight:bold;vertical-align:top;">session_data_name</td><td style="vertical-align:top;">:</td><td><div>session_data_recipe</div></td></tr><tr><td style="font-weight:bold;vertical-align:top;">session_file</td><td style="vertical-align:top;">:</td><td><div>&lt;open file &#x27;/Users/Harrison/Documents/Uni/IAPT_Practicals/web2py/applications/recipe/sessions/178/0e5/127.0.0.1-86356626-91f2-41f1-948e-7bbcdcec7003&#x27;, mode &#x27;rb+&#x27; at 0x117080420&gt;</div></td></tr><tr><td style="font-weight:bold;vertical-align:top;">session_filename</td><td style="vertical-align:top;">:</td><td><div>/Users/Harrison/Documents/Uni/IAPT_Practicals/web2py/applications/recipe/sessions/127.0.0.1-86356626-91f2-41f1-948e-7bbcdcec7003</div></td></tr><tr><td style="font-weight:bold;vertical-align:top;">session_hash</td><td style="vertical-align:top;">:</td><td><div>d165d1a7feceb4929bc77c01ff21e382</div></td></tr><tr><td style="font-weight:bold;vertical-align:top;">session_id</td><td style="vertical-align:top;">:</td><td><div>127.0.0.1-86356626-91f2-41f1-948e-7bbcdcec7003</div></td></tr><tr><td style="font-weight:bold;vertical-align:top;">session_id_name</td><td style="vertical-align:top;">:</td><td><div>session_id_recipe</div></td></tr><tr><td style="font-weight:bold;vertical-align:top;">session_locked</td><td style="vertical-align:top;">:</td><td><div>True</div></td></tr><tr><td style="font-weight:bold;vertical-align:top;">session_masterapp</td><td style="vertical-align:top;">:</td><td><div>recipe</div></td></tr><tr><td style="font-weight:bold;vertical-align:top;">session_new</td><td style="vertical-align:top;">:</td><td><div>False</div></td></tr><tr><td style="font-weight:bold;vertical-align:top;">session_storage_type</td><td style="vertical-align:top;">:</td><td><div>file</div></td></tr><tr><td style="font-weight:bold;vertical-align:top;">status</td><td style="vertical-align:top;">:</td><td><div>200</div></td></tr><tr><td style="font-weight:bold;vertical-align:top;">subtitle</td><td style="vertical-align:top;">:</td><td><div></div></td></tr><tr><td style="font-weight:bold;vertical-align:top;">title</td><td style="vertical-align:top;">:</td><td><div>Recipe</div></td></tr><tr><td style="font-weight:bold;vertical-align:top;">view</td><td style="vertical-align:top;">:</td><td><div>default/ingredients.html</div></td></tr></table></div>'
tRp122
sS'locals'
p123
(dp124
S'Service'
p125
S"<class 'gluon.tools.Service'>"
p126
sS'OBJECT'
p127
S"<class 'gluon.html.OBJECT'>"
p128
sS'SQLDB'
p129
S"<class 'gluon.dal.DAL'>"
p130
sg115
S"<Storage {'last_orderby': None, 'last_query': 'd...ate]': ['18572e2b-30f3-4c4b-bd4b-9ef8a17185d8']}>"
p131
sS'LINK'
p132
S"<class 'gluon.html.LINK'>"
p133
sS'BR'
p134
S"<class 'gluon.html.BR'>"
p135
sS'local_import'
p136
S'<function <lambda>>'
p137
sS'OPTGROUP'
p138
S"<class 'gluon.html.OPTGROUP'>"
p139
sS'__package__'
p140
S'None'
p141
sS'PRE'
p142
S"<class 'gluon.html.PRE'>"
p143
sS'IS_INT_IN_RANGE'
p144
S"<class 'gluon.validators.IS_INT_IN_RANGE'>"
p145
sS'IS_LOWER'
p146
S"<class 'gluon.validators.IS_LOWER'>"
p147
sS'IS_STRONG'
p148
S"<class 'gluon.validators.IS_STRONG'>"
p149
sS'cache'
p150
S'<gluon.cache.Cache object>'
p151
sS'IS_IN_DB'
p152
S"<class 'gluon.validators.IS_IN_DB'>"
p153
sS'TAG'
p154
S'<gluon.html.__TAG__ object>'
p155
sS'SQLField'
p156
S"<class 'gluon.dal.Field'>"
p157
sS'mail'
p158
S'<gluon.tools.Mail object>'
p159
sS'ingredient'
p160
S"<Row {'_extra': {'name': 'Tomato'}}>"
p161
sS'BODY'
p162
S"<class 'gluon.html.BODY'>"
p163
sS'IS_DATE_IN_RANGE'
p164
S"<class 'gluon.validators.IS_DATE_IN_RANGE'>"
p165
sS'IFRAME'
p166
S"<class 'gluon.html.IFRAME'>"
p167
sS'URL'
p168
S'<function URL>'
p169
sS'__file__'
p170
S"'/Users/Harrison/Documents/Uni/IAPT_Practicals/we...pplications/recipe/views/default/ingredients.html'"
p171
sS'db'
p172
S'<DAL uri="sqlite://recipe.db">'
p173
sS'auth'
p174
S'<gluon.tools.Auth object>'
p175
sS'P'
S"<class 'gluon.html.P'>"
p176
sS'TFOOT'
p177
S"<class 'gluon.html.TFOOT'>"
p178
sS'XHTML'
p179
S"<class 'gluon.html.XHTML'>"
p180
sS'ON'
p181
S'True'
p182
sS'OL'
p183
S"<class 'gluon.html.OL'>"
p184
sS'TEXTAREA'
p185
S"<class 'gluon.html.TEXTAREA'>"
p186
sS'MENU'
p187
S"<class 'gluon.html.MENU'>"
p188
sS'IS_IMAGE'
p189
S"<class 'gluon.validators.IS_IMAGE'>"
p190
sS'EM'
p191
S"<class 'gluon.html.EM'>"
p192
sS'CODE'
p193
S"<class 'gluon.html.CODE'>"
p194
sS'HTTP'
p195
S"<class 'gluon.http.HTTP'>"
p196
sS'HR'
p197
S"<class 'gluon.html.HR'>"
p198
sS'IS_DATETIME'
p199
S"<class 'gluon.validators.IS_DATETIME'>"
p200
sS'STYLE'
p201
S"<class 'gluon.html.STYLE'>"
p202
sS'LABEL'
p203
S"<class 'gluon.html.LABEL'>"
p204
sS'CLEANUP'
p205
S"<class 'gluon.validators.CLEANUP'>"
p206
sS'plugins'
p207
S'<gluon.tools.PluginManager object>'
p208
sS'SELECT'
p209
S"<class 'gluon.html.SELECT'>"
p210
sS'use_janrain'
p211
S'<function use_janrain>'
p212
sS'CENTER'
p213
S"<class 'gluon.html.CENTER'>"
p214
sS'Auth'
p215
S"<class 'gluon.tools.Auth'>"
p216
sS'DEVELOPMENT_MENU'
p217
g182
sS'__builtins__'
p218
S"{'ArithmeticError': <type 'exceptions.ArithmeticError'>, 'AssertionError': <type 'exceptions.AssertionError'>, 'AttributeError': <type 'exceptions.AttributeError'>, 'BaseException': <type 'exceptions.BaseException'>, 'BufferError': <type 'exceptions.BufferError'>, 'BytesWarning': <type 'exceptions.BytesWarning'>, 'DeprecationWarning': <type 'exceptions.DeprecationWarning'>, 'EOFError': <type 'exceptions.EOFError'>, 'Ellipsis': Ellipsis, 'EnvironmentError': <type 'exceptions.EnvironmentError'>, ...}"
p219
sS'HTML'
p220
S"<class 'gluon.html.HTML'>"
p221
sS'SQLFORM'
p222
S"<class 'gluon.sqlhtml.SQLFORM'>"
p223
sS'LOAD'
p224
S'<function LOAD>'
p225
sS'redirect'
p226
S'<function redirect>'
p227
sS'FIELDSET'
p228
S"<class 'gluon.html.FIELDSET'>"
p229
sS'IS_EQUAL_TO'
p230
S"<class 'gluon.validators.IS_EQUAL_TO'>"
p231
sS'embed64'
p232
S'<function embed64>'
p233
sS'IS_LIST_OF'
p234
S"<class 'gluon.validators.IS_LIST_OF'>"
p235
sS'INPUT'
p236
S"<class 'gluon.html.INPUT'>"
p237
sS'EMBED'
p238
S"<class 'gluon.html.EMBED'>"
p239
sS'_'
S'<function _>'
p240
sS'H2'
p241
S"<class 'gluon.html.H2'>"
p242
sS'H3'
p243
S"<class 'gluon.html.H3'>"
p244
sS'BUTTON'
p245
S"<class 'gluon.html.BUTTON'>"
p246
sS'H1'
p247
S"<class 'gluon.html.H1'>"
p248
sS'H6'
p249
S"<class 'gluon.html.H6'>"
p250
sS'H4'
p251
S"<class 'gluon.html.H4'>"
p252
sS'H5'
p253
S"<class 'gluon.html.H5'>"
p254
sS'UL'
p255
S"<class 'gluon.html.UL'>"
p256
sS'IS_UPPER'
p257
S"<class 'gluon.validators.IS_UPPER'>"
p258
sS'xmlescape'
p259
S'<function xmlescape>'
p260
sS'IS_TIME'
p261
S"<class 'gluon.validators.IS_TIME'>"
p262
sS'OPTION'
p263
S"<class 'gluon.html.OPTION'>"
p264
sS'TITLE'
p265
S"<class 'gluon.html.TITLE'>"
p266
sS'CRYPT'
p267
S"<class 'gluon.validators.CRYPT'>"
p268
sS'IS_EMPTY_OR'
p269
S"<class 'gluon.validators.IS_EMPTY_OR'>"
p270
sS'MARKMIN'
p271
S"<class 'gluon.html.MARKMIN'>"
p272
sS'__name__'
p273
S"'__restricted__'"
p274
sS'STRONG'
p275
S"<class 'gluon.html.STRONG'>"
p276
sS'COL'
p277
S"<class 'gluon.html.COL'>"
p278
sS'service'
p279
S'<gluon.tools.Service object>'
p280
sS'SCRIPT'
p281
S"<class 'gluon.html.SCRIPT'>"
p282
sS'TABLE'
p283
S"<class 'gluon.html.TABLE'>"
p284
sS'IS_IPV4'
p285
S"<class 'gluon.validators.IS_IPV4'>"
p286
sS'IS_LENGTH'
p287
S"<class 'gluon.validators.IS_LENGTH'>"
p288
sS'IS_IPV6'
p289
S"<class 'gluon.validators.IS_IPV6'>"
p290
sS'XML'
p291
S"<class 'gluon.html.XML'>"
p292
sS'B'
S"<class 'gluon.html.B'>"
p293
sS'IMG'
p294
S"<class 'gluon.html.IMG'>"
p295
sS'SQLTABLE'
p296
S"<class 'gluon.sqlhtml.SQLTABLE'>"
p297
sS'IS_MATCH'
p298
S"<class 'gluon.validators.IS_MATCH'>"
p299
sS'IS_ALPHANUMERIC'
p300
S"<class 'gluon.validators.IS_ALPHANUMERIC'>"
p301
sS'__author__'
p302
S"'Harrison'"
p303
sS'SPAN'
p304
S"<class 'gluon.html.SPAN'>"
p305
sS'IS_JSON'
p306
S"<class 'gluon.validators.IS_JSON'>"
p307
sS'IS_IPADDRESS'
p308
S"<class 'gluon.validators.IS_IPADDRESS'>"
p309
sS'IS_SLUG'
p310
S"<class 'gluon.validators.IS_SLUG'>"
p311
sS'BEAUTIFY'
p312
S"<class 'gluon.html.BEAUTIFY'>"
p313
sS'META'
p314
S"<class 'gluon.html.META'>"
p315
sS'IS_DATE'
p316
S"<class 'gluon.validators.IS_DATE'>"
p317
sS'IS_EMAIL'
p318
S"<class 'gluon.validators.IS_EMAIL'>"
p319
sS'IS_NOT_EMPTY'
p320
S"<class 'gluon.validators.IS_NOT_EMPTY'>"
p321
sS'IS_FLOAT_IN_RANGE'
p322
S"<class 'gluon.validators.IS_FLOAT_IN_RANGE'>"
p323
sS'TBODY'
p324
S"<class 'gluon.html.TBODY'>"
p325
sS'CAT'
p326
S"<class 'gluon.html.CAT'>"
p327
sS'Field'
p328
S"<class 'gluon.dal.Field'>"
p329
sS'IS_LIST_OF_EMAILS'
p330
S"<class 'gluon.validators.IS_LIST_OF_EMAILS'>"
p331
sS'DIV'
p332
S"<class 'gluon.html.DIV'>"
p333
sS'ing'
p334
S"<Set (ingredients.name = 'Tomato')>"
p335
sS'LEGEND'
p336
S"<class 'gluon.html.LEGEND'>"
p337
sS'COLGROUP'
p338
S"<class 'gluon.html.COLGROUP'>"
p339
sS'DAL'
p340
S"<class 'gluon.dal.DAL'>"
p341
sS'ASSIGNJS'
p342
S'<function ASSIGNJS>'
p343
sS'TR'
p344
S"<class 'gluon.html.TR'>"
p345
sS'LI'
p346
S"<class 'gluon.html.LI'>"
p347
sS'TH'
p348
S"<class 'gluon.html.TH'>"
p349
sS'TD'
p350
S"<class 'gluon.html.TD'>"
p351
sS'PluginManager'
p352
S"<class 'gluon.tools.PluginManager'>"
p353
sS'IS_URL'
p354
S"<class 'gluon.validators.IS_URL'>"
p355
sS'A'
S"<class 'gluon.html.A'>"
p356
sS'HEAD'
p357
S"<class 'gluon.html.HEAD'>"
p358
sS'IS_DATETIME_IN_RANGE'
p359
S"<class 'gluon.validators.IS_DATETIME_IN_RANGE'>"
p360
sS'FORM'
p361
S"<class 'gluon.html.FORM'>"
p362
sS'I'
S"<class 'gluon.html.I'>"
p363
sS'IS_NOT_IN_DB'
p364
S"<class 'gluon.validators.IS_NOT_IN_DB'>"
p365
sg121
S"<Storage {'body': <cStringIO.StringO object at 0...x117057230>, 'view': 'default/ingredients.html'}>"
p366
sS'THEAD'
p367
S"<class 'gluon.html.THEAD'>"
p368
sS'ANY_OF'
p369
S"<class 'gluon.validators.ANY_OF'>"
p370
sS'IS_NULL_OR'
p371
S"<class 'gluon.validators.IS_EMPTY_OR'>"
p372
sS'ingredients'
p373
S'<Rows (4)>'
p374
sg56
S"<Storage {'_vars': None, 'function': 'ingredient...ni/IAPT_Practicals/web2py/applications/recipe/'}>"
p375
sS'IS_EXPR'
p376
S"<class 'gluon.validators.IS_EXPR'>"
p377
sS'T'
S'<gluon.languages.translator object>'
p378
sS'IS_IN_SET'
p379
S"<class 'gluon.validators.IS_IN_SET'>"
p380
sS'IS_UPLOAD_FILENAME'
p381
S"<class 'gluon.validators.IS_UPLOAD_FILENAME'>"
p382
sS'TT'
p383
S"<class 'gluon.html.TT'>"
p384
sS'IS_DECIMAL_IN_RANGE'
p385
S"<class 'gluon.validators.IS_DECIMAL_IN_RANGE'>"
p386
sssS'traceback'
p387
S'Traceback (most recent call last):\n  File "/Users/Harrison/Documents/Uni/IAPT_Practicals/web2py/gluon/restricted.py", line 224, in restricted\n    exec ccode in environment\n  File "/Users/Harrison/Documents/Uni/IAPT_Practicals/web2py/applications/recipe/views/default/ingredients.html", line 13, in <module>\n    {{pass}}\nAttributeError: \'Set\' object has no attribute \'ingredients\'\n'
p388
s.